; Function Attrs: mustprogress uwtable
define internal void @_ZN11opencv_test12_GLOBAL__N_160gtest_INTERP_GRID_Dense_OpticalFlow_DenseRLOF_EvalGenerator_B5cxx11Ev(ptr dead_on_unwind noalias writable sret(%"class.testing::internal::ParamGenerator.24") align 8 %0) #3 personality ptr @__gxx_personality_v0 {
  %2 = alloca %"class.std::__cxx11::basic_string", align 8
  %3 = alloca %"class.testing::internal::CartesianProductHolder2", align 8
  %4 = alloca %"class.testing::internal::ValueArray3", align 8
  %5 = alloca %"class.std::__cxx11::basic_string", align 8
  %6 = alloca %"class.std::allocator.0", align 1
  call void @_ZNSaIcEC1Ev(ptr noundef nonnull align 1 dereferenceable(1) %6) #24
  invoke void @_ZNSt7__cxx1112basic_stringIcSt11char_traitsIcESaIcEEC1EPKcRKS3_(ptr noundef nonnull align 8 dereferenceable(32) %5, ptr noundef nonnull @.str.57, ptr noundef nonnull align 1 dereferenceable(1) %6)
          to label %7 unwind label %19

7:                                                ; preds = %1
  call void @llvm.lifetime.start.p0(i64 32, ptr nonnull %2)
  invoke void @_ZNSt7__cxx1112basic_stringIcSt11char_traitsIcESaIcEEC1ERKS4_(ptr noundef nonnull align 8 dereferenceable(32) %2, ptr noundef nonnull align 8 dereferenceable(32) %5)
          to label %.noexc unwind label %21

.noexc:                                           ; preds = %7
  invoke void @_ZNSt7__cxx1112basic_stringIcSt11char_traitsIcESaIcEEC1ERKS4_(ptr noundef nonnull align 8 dereferenceable(32) %4, ptr noundef nonnull align 8 dereferenceable(32) %2)
          to label %10 unwind label %8

8:                                                ; preds = %.noexc
  %9 = landingpad { ptr, i32 }
          cleanup
  call void @_ZNSt7__cxx1112basic_stringIcSt11char_traitsIcESaIcEED1Ev(ptr noundef nonnull align 8 dereferenceable(32) %2) #24
  br label %.body

10:                                               ; preds = %.noexc
  %11 = getelementptr inbounds i8, ptr %4, i64 32
  store ptr @.str.58, ptr %11, align 8, !alias.scope !17
  %12 = getelementptr inbounds i8, ptr %4, i64 40
  store ptr @.str.59, ptr %12, align 8, !alias.scope !17
  call void @_ZNSt7__cxx1112basic_stringIcSt11char_traitsIcESaIcEED1Ev(ptr noundef nonnull align 8 dereferenceable(32) %2) #24
  call void @llvm.lifetime.end.p0(i64 32, ptr nonnull %2)
  call void @llvm.experimental.noalias.scope.decl(metadata !20)
  invoke void @_ZNSt7__cxx1112basic_stringIcSt11char_traitsIcESaIcEEC1ERKS4_(ptr noundef nonnull align 8 dereferenceable(32) %3, ptr noundef nonnull align 8 dereferenceable(32) %4)
          to label %13 unwind label %23

13:                                               ; preds = %10
  %14 = getelementptr inbounds i8, ptr %3, i64 32
  %15 = load <2 x ptr>, ptr %11, align 8, !noalias !20
  store <2 x ptr> %15, ptr %14, align 8, !alias.scope !20
  %16 = getelementptr inbounds i8, ptr %3, i64 48
  store i32 4, ptr %16, align 8, !alias.scope !20
  %17 = getelementptr inbounds i8, ptr %3, i64 52
  store i32 10, ptr %17, align 4, !alias.scope !20
  invoke void @_ZNK7testing8internal23CartesianProductHolder2INS0_11ValueArray3INSt7__cxx1112basic_stringIcSt11char_traitsIcESaIcEEEPKcSA_EENS0_11ValueArray2IiiEEEcvNS0_14ParamGeneratorISt5tupleIJT_T0_EEEEIS8_iEEv(ptr dead_on_unwind writable sret(%"class.testing::internal::ParamGenerator.24") align 8 %0, ptr noundef nonnull align 8 dereferenceable(56) %3)
          to label %18 unwind label %25

18:                                               ; preds = %13
  call void @_ZNSt7__cxx1112basic_stringIcSt11char_traitsIcESaIcEED1Ev(ptr noundef nonnull align 8 dereferenceable(32) %3) #24
  call void @_ZNSt7__cxx1112basic_stringIcSt11char_traitsIcESaIcEED1Ev(ptr noundef nonnull align 8 dereferenceable(32) %4) #24
  call void @_ZNSt7__cxx1112basic_stringIcSt11char_traitsIcESaIcEED1Ev(ptr noundef nonnull align 8 dereferenceable(32) %5) #24
  call void @_ZNSaIcED1Ev(ptr noundef nonnull align 1 dereferenceable(1) %6) #24
  ret void

19:                                               ; preds = %1
  %20 = landingpad { ptr, i32 }
          cleanup
  br label %28

21:                                               ; preds = %7
  %22 = landingpad { ptr, i32 }
          cleanup
  br label %.body

23:                                               ; preds = %10
  %24 = landingpad { ptr, i32 }
          cleanup
  br label %27

25:                                               ; preds = %13
  %26 = landingpad { ptr, i32 }
          cleanup
  call void @_ZNSt7__cxx1112basic_stringIcSt11char_traitsIcESaIcEED1Ev(ptr noundef nonnull align 8 dereferenceable(32) %3) #24
  br label %27

27:                                               ; preds = %25, %23
  %.pn = phi { ptr, i32 } [ %26, %25 ], [ %24, %23 ]
  call void @_ZNSt7__cxx1112basic_stringIcSt11char_traitsIcESaIcEED1Ev(ptr noundef nonnull align 8 dereferenceable(32) %4) #24
  br label %.body

.body:                                            ; preds = %21, %8, %27
  %.pn.pn = phi { ptr, i32 } [ %.pn, %27 ], [ %22, %21 ], [ %9, %8 ]
  call void @_ZNSt7__cxx1112basic_stringIcSt11char_traitsIcESaIcEED1Ev(ptr noundef nonnull align 8 dereferenceable(32) %5) #24
  br label %28

28:                                               ; preds = %.body, %19
  %.pn.pn.pn = phi { ptr, i32 } [ %.pn.pn, %.body ], [ %20, %19 ]
  call void @_ZNSaIcED1Ev(ptr noundef nonnull align 1 dereferenceable(1) %6) #24
  resume { ptr, i32 } %.pn.pn.pn
}